target datalayout = "e-m:e-p270:32:32-p271:32:32-p272:64:64-i64:64-i128:128-f80:128-n8:16:32:64-S128"
target triple = "x86_64-pc-linux-gnu"

; Function Attrs: mustprogress nounwind uwtable
define i64 @mz_adler32(i64 noundef %0, ptr noundef %1, i64 noundef %2) #4 {
  %4 = alloca i64, align 8
  %5 = alloca i64, align 8
  %6 = alloca ptr, align 8
  %7 = alloca i64, align 8
  %8 = alloca i32, align 4
  %9 = alloca i32, align 4
  %10 = alloca i32, align 4
  %11 = alloca i64, align 8
  store i64 %0, ptr %5, align 8
  store ptr %1, ptr %6, align 8
  store i64 %2, ptr %7, align 8
  %12 = load i64, ptr %5, align 8
  %13 = and i64 %12, 65535
  %14 = trunc i64 %13 to i32
  store i32 %14, ptr %9, align 4
  %15 = load i64, ptr %5, align 8
  %16 = lshr i64 %15, 16
  %17 = trunc i64 %16 to i32
  store i32 %17, ptr %10, align 4
  %18 = load i64, ptr %7, align 8
  %19 = urem i64 %18, 5552
  store i64 %19, ptr %11, align 8
  %20 = load ptr, ptr %6, align 8
  %21 = icmp ne ptr %20, null
  br i1 %21, label %23, label %22

22:                                               ; preds = %3
  store i64 1, ptr %4, align 8
  br label %145

23:                                               ; preds = %3
  br label %24

24:                                               ; preds = %131, %23
  %25 = load i64, ptr %7, align 8
  %26 = icmp ne i64 %25, 0
  br i1 %26, label %27, label %139

27:                                               ; preds = %24
  store i32 0, ptr %8, align 4
  br label %28

28:                                               ; preds = %107, %27
  %29 = load i32, ptr %8, align 4
  %30 = add i32 %29, 7
  %31 = zext i32 %30 to i64
  %32 = load i64, ptr %11, align 8
  %33 = icmp ult i64 %31, %32
  br i1 %33, label %34, label %112

34:                                               ; preds = %28
  %35 = load ptr, ptr %6, align 8
  %36 = getelementptr inbounds i8, ptr %35, i64 0
  %37 = load i8, ptr %36, align 1
  %38 = zext i8 %37 to i32
  %39 = load i32, ptr %9, align 4
  %40 = add i32 %39, %38
  store i32 %40, ptr %9, align 4
  %41 = load i32, ptr %9, align 4
  %42 = load i32, ptr %10, align 4
  %43 = add i32 %42, %41
  store i32 %43, ptr %10, align 4
  %44 = load ptr, ptr %6, align 8
  %45 = getelementptr inbounds i8, ptr %44, i64 1
  %46 = load i8, ptr %45, align 1
  %47 = zext i8 %46 to i32
  %48 = load i32, ptr %9, align 4
  %49 = add i32 %48, %47
  store i32 %49, ptr %9, align 4
  %50 = load i32, ptr %9, align 4
  %51 = load i32, ptr %10, align 4
  %52 = add i32 %51, %50
  store i32 %52, ptr %10, align 4
  %53 = load ptr, ptr %6, align 8
  %54 = getelementptr inbounds i8, ptr %53, i64 2
  %55 = load i8, ptr %54, align 1
  %56 = zext i8 %55 to i32
  %57 = load i32, ptr %9, align 4
  %58 = add i32 %57, %56
  store i32 %58, ptr %9, align 4
  %59 = load i32, ptr %9, align 4
  %60 = load i32, ptr %10, align 4
  %61 = add i32 %60, %59
  store i32 %61, ptr %10, align 4
  %62 = load ptr, ptr %6, align 8
  %63 = getelementptr inbounds i8, ptr %62, i64 3
  %64 = load i8, ptr %63, align 1
  %65 = zext i8 %64 to i32
  %66 = load i32, ptr %9, align 4
  %67 = add i32 %66, %65
  store i32 %67, ptr %9, align 4
  %68 = load i32, ptr %9, align 4
  %69 = load i32, ptr %10, align 4
  %70 = add i32 %69, %68
  store i32 %70, ptr %10, align 4
  %71 = load ptr, ptr %6, align 8
  %72 = getelementptr inbounds i8, ptr %71, i64 4
  %73 = load i8, ptr %72, align 1
  %74 = zext i8 %73 to i32
  %75 = load i32, ptr %9, align 4
  %76 = add i32 %75, %74
  store i32 %76, ptr %9, align 4
  %77 = load i32, ptr %9, align 4
  %78 = load i32, ptr %10, align 4
  %79 = add i32 %78, %77
  store i32 %79, ptr %10, align 4
  %80 = load ptr, ptr %6, align 8
  %81 = getelementptr inbounds i8, ptr %80, i64 5
  %82 = load i8, ptr %81, align 1
  %83 = zext i8 %82 to i32
  %84 = load i32, ptr %9, align 4
  %85 = add i32 %84, %83
  store i32 %85, ptr %9, align 4
  %86 = load i32, ptr %9, align 4
  %87 = load i32, ptr %10, align 4
  %88 = add i32 %87, %86
  store i32 %88, ptr %10, align 4
  %89 = load ptr, ptr %6, align 8
  %90 = getelementptr inbounds i8, ptr %89, i64 6
  %91 = load i8, ptr %90, align 1
  %92 = zext i8 %91 to i32
  %93 = load i32, ptr %9, align 4
  %94 = add i32 %93, %92
  store i32 %94, ptr %9, align 4
  %95 = load i32, ptr %9, align 4
  %96 = load i32, ptr %10, align 4
  %97 = add i32 %96, %95
  store i32 %97, ptr %10, align 4
  %98 = load ptr, ptr %6, align 8
  %99 = getelementptr inbounds i8, ptr %98, i64 7
  %100 = load i8, ptr %99, align 1
  %101 = zext i8 %100 to i32
  %102 = load i32, ptr %9, align 4
  %103 = add i32 %102, %101
  store i32 %103, ptr %9, align 4
  %104 = load i32, ptr %9, align 4
  %105 = load i32, ptr %10, align 4
  %106 = add i32 %105, %104
  store i32 %106, ptr %10, align 4
  br label %107

107:                                              ; preds = %34
  %108 = load i32, ptr %8, align 4
  %109 = add i32 %108, 8
  store i32 %109, ptr %8, align 4
  %110 = load ptr, ptr %6, align 8
  %111 = getelementptr inbounds i8, ptr %110, i64 8
  store ptr %111, ptr %6, align 8
  br label %28, !llvm.loop !11

112:                                              ; preds = %28
  br label %113

113:                                              ; preds = %128, %112
  %114 = load i32, ptr %8, align 4
  %115 = zext i32 %114 to i64
  %116 = load i64, ptr %11, align 8
  %117 = icmp ult i64 %115, %116
  br i1 %117, label %118, label %131

118:                                              ; preds = %113
  %119 = load ptr, ptr %6, align 8
  %120 = getelementptr inbounds i8, ptr %119, i32 1
  store ptr %120, ptr %6, align 8
  %121 = load i8, ptr %119, align 1
  %122 = zext i8 %121 to i32
  %123 = load i32, ptr %9, align 4
  %124 = add i32 %123, %122
  store i32 %124, ptr %9, align 4
  %125 = load i32, ptr %9, align 4
  %126 = load i32, ptr %10, align 4
  %127 = add i32 %126, %125
  store i32 %127, ptr %10, align 4
  br label %128

128:                                              ; preds = %118
  %129 = load i32, ptr %8, align 4
  %130 = add i32 %129, 1
  store i32 %130, ptr %8, align 4
  br label %113, !llvm.loop !12

131:                                              ; preds = %113
  %132 = load i32, ptr %9, align 4
  %133 = urem i32 %132, 65521
  store i32 %133, ptr %9, align 4
  %134 = load i32, ptr %10, align 4
  %135 = urem i32 %134, 65521
  store i32 %135, ptr %10, align 4
  %136 = load i64, ptr %11, align 8
  %137 = load i64, ptr %7, align 8
  %138 = sub i64 %137, %136
  store i64 %138, ptr %7, align 8
  store i64 5552, ptr %11, align 8
  br label %24, !llvm.loop !13

139:                                              ; preds = %24
  %140 = load i32, ptr %10, align 4
  %141 = shl i32 %140, 16
  %142 = load i32, ptr %9, align 4
  %143 = add i32 %141, %142
  %144 = zext i32 %143 to i64
  store i64 %144, ptr %4, align 8
  br label %145

145:                                              ; preds = %139, %22
  %146 = load i64, ptr %4, align 8
  ret i64 %146
}